; Function Attrs: mustprogress nofree norecurse nosync nounwind willreturn memory(readwrite, inaccessiblemem: none) uwtable
define internal void @_ZNK5faiss16IndexIVFFastScan16search_implem_14ElPKflPfPlRKNS0_15CoarseQuantizedEiPKNS_15NormTableScalerEPKNS_19SearchParametersIVFE.omp_outlined.omp.reduction.reduction_func(ptr noundef readonly captures(none) %0, ptr noundef readonly captures(none) %1) #27 {
  %3 = load ptr, ptr %1, align 8
  %4 = load ptr, ptr %0, align 8
  %5 = getelementptr inbounds nuw i8, ptr %1, i64 8
  %6 = load ptr, ptr %5, align 8
  %7 = getelementptr inbounds nuw i8, ptr %0, i64 8
  %8 = load ptr, ptr %7, align 8
  %9 = load i64, ptr %4, align 8, !tbaa !54
  %10 = load i64, ptr %3, align 8, !tbaa !54
  %11 = add i64 %10, %9
  store i64 %11, ptr %4, align 8, !tbaa !54
  %12 = load i64, ptr %8, align 8, !tbaa !54
  %13 = load i64, ptr %6, align 8, !tbaa !54
  %14 = add i64 %13, %12
  store i64 %14, ptr %8, align 8, !tbaa !54
  ret void
}